target datalayout = "e-m:e-p270:32:32-p271:32:32-p272:64:64-i64:64-i128:128-f80:128-n8:16:32:64-S128"
target triple = "x86_64-pc-linux-gnu"

; Function Attrs: nounwind uwtable
define hidden i32 @mbedtls_pkcs7_signed_data_verify(ptr noundef %0, ptr noundef %1, ptr noundef %2, i64 noundef %3) #0 {
  %5 = alloca i32, align 4
  %6 = alloca ptr, align 8
  %7 = alloca ptr, align 8
  %8 = alloca ptr, align 8
  %9 = alloca i64, align 8
  store ptr %0, ptr %6, align 8, !tbaa !3
  store ptr %1, ptr %7, align 8, !tbaa !52
  store ptr %2, ptr %8, align 8, !tbaa !8
  store i64 %3, ptr %9, align 8, !tbaa !10
  %10 = load ptr, ptr %8, align 8, !tbaa !8
  %11 = icmp eq ptr %10, null
  br i1 %11, label %12, label %13

12:                                               ; preds = %4
  store i32 -22272, ptr %5, align 4
  br label %19

13:                                               ; preds = %4
  %14 = load ptr, ptr %6, align 8, !tbaa !3
  %15 = load ptr, ptr %7, align 8, !tbaa !52
  %16 = load ptr, ptr %8, align 8, !tbaa !8
  %17 = load i64, ptr %9, align 8, !tbaa !10
  %18 = call i32 @mbedtls_pkcs7_data_or_hash_verify(ptr noundef %14, ptr noundef %15, ptr noundef %16, i64 noundef %17, i32 noundef 0)
  store i32 %18, ptr %5, align 4
  br label %19

19:                                               ; preds = %13, %12
  %20 = load i32, ptr %5, align 4
  ret i32 %20
}