; Function Attrs: nounwind uwtable
define hidden i32 @mbedtls_pkcs7_signed_data_verify(ptr noundef %0, ptr noundef %1, ptr noundef %2, i64 noundef %3) local_unnamed_addr #2 {
  %5 = icmp eq ptr %2, null
  br i1 %5, label %8, label %6

6:                                                ; preds = %4
  %7 = tail call fastcc i32 @mbedtls_pkcs7_data_or_hash_verify(ptr noundef %0, ptr noundef %1, ptr noundef %2, i64 noundef %3, i32 noundef 0)
  br label %8

8:                                                ; preds = %4, %6
  %.0 = phi i32 [ %7, %6 ], [ -22272, %4 ]
  ret i32 %.0
}